; ModuleID = '60/352.c'
source_filename = "60/352.c"
target datalayout = "e-m:e-p270:32:32-p271:32:32-p272:64:64-i64:64-f80:128-n8:16:32:64-S128"
target triple = "x86_64-pc-linux-gnu"

@.str = private unnamed_addr constant [3 x i8] c"%d\00", align 1
@.str.1 = private unnamed_addr constant [7 x i8] c"empty\0A\00", align 1
@.str.2 = private unnamed_addr constant [7 x i8] c"%d %d\0A\00", align 1

; Function Attrs: noinline nounwind uwtable
define dso_local i32 @main() #0 {
  %1 = alloca i32, align 4
  %2 = alloca i32, align 4
  %3 = alloca i32, align 4
  %4 = alloca i32, align 4
  %5 = alloca i32, align 4
  %6 = alloca i32, align 4
  %7 = alloca i32, align 4
  store i32 0, i32* %1, align 4
  store i32 0, i32* %6, align 4
  store i32 0, i32* %7, align 4
  %8 = call i32 (i8*, ...) @__isoc99_scanf(i8* getelementptr inbounds ([3 x i8], [3 x i8]* @.str, i64 0, i64 0), i32* %2)
  %9 = load i32, i32* %2, align 4
  %10 = icmp slt i32 %9, 5
  br i1 %10, label %11, label %13

11:                                               ; preds = %0
  %12 = call i32 (i8*, ...) @printf(i8* getelementptr inbounds ([7 x i8], [7 x i8]* @.str.1, i64 0, i64 0))
  br label %68

13:                                               ; preds = %0
  store i32 3, i32* %3, align 4
  br label %14

14:                                               ; preds = %64, %13
  %15 = load i32, i32* %3, align 4
  %16 = load i32, i32* %2, align 4
  %17 = sub nsw i32 %16, 1
  %18 = icmp slt i32 %15, %17
  br i1 %18, label %19, label %67

19:                                               ; preds = %14
  store i32 0, i32* %6, align 4
  store i32 2, i32* %4, align 4
  br label %20

20:                                               ; preds = %31, %19
  %21 = load i32, i32* %4, align 4
  %22 = load i32, i32* %3, align 4
  %23 = icmp slt i32 %21, %22
  br i1 %23, label %24, label %34

24:                                               ; preds = %20
  %25 = load i32, i32* %3, align 4
  %26 = load i32, i32* %4, align 4
  %27 = srem i32 %25, %26
  %28 = icmp eq i32 %27, 0
  br i1 %28, label %29, label %30

29:                                               ; preds = %24
  store i32 1, i32* %6, align 4
  br label %34

30:                                               ; preds = %24
  br label %31

31:                                               ; preds = %30
  %32 = load i32, i32* %4, align 4
  %33 = add nsw i32 %32, 1
  store i32 %33, i32* %4, align 4
  br label %20

34:                                               ; preds = %29, %20
  %35 = load i32, i32* %6, align 4
  %36 = icmp eq i32 %35, 0
  br i1 %36, label %37, label %63

37:                                               ; preds = %34
  store i32 0, i32* %7, align 4
  store i32 2, i32* %5, align 4
  br label %38

38:                                               ; preds = %51, %37
  %39 = load i32, i32* %5, align 4
  %40 = load i32, i32* %3, align 4
  %41 = add nsw i32 %40, 2
  %42 = icmp slt i32 %39, %41
  br i1 %42, label %43, label %54

43:                                               ; preds = %38
  %44 = load i32, i32* %3, align 4
  %45 = add nsw i32 %44, 2
  %46 = load i32, i32* %5, align 4
  %47 = srem i32 %45, %46
  %48 = icmp eq i32 %47, 0
  br i1 %48, label %49, label %50

49:                                               ; preds = %43
  store i32 1, i32* %7, align 4
  br label %54

50:                                               ; preds = %43
  br label %51

51:                                               ; preds = %50
  %52 = load i32, i32* %5, align 4
  %53 = add nsw i32 %52, 1
  store i32 %53, i32* %5, align 4
  br label %38

54:                                               ; preds = %49, %38
  %55 = load i32, i32* %7, align 4
  %56 = icmp eq i32 %55, 0
  br i1 %56, label %57, label %62

57:                                               ; preds = %54
  %58 = load i32, i32* %3, align 4
  %59 = load i32, i32* %3, align 4
  %60 = add nsw i32 %59, 2
  %61 = call i32 (i8*, ...) @printf(i8* getelementptr inbounds ([7 x i8], [7 x i8]* @.str.2, i64 0, i64 0), i32 %58, i32 %60)
  br label %62

62:                                               ; preds = %57, %54
  br label %63

63:                                               ; preds = %62, %34
  br label %64

64:                                               ; preds = %63
  %65 = load i32, i32* %3, align 4
  %66 = add nsw i32 %65, 1
  store i32 %66, i32* %3, align 4
  br label %14

67:                                               ; preds = %14
  br label %68

68:                                               ; preds = %67, %11
  %69 = call i32 @getchar()
  %70 = call i32 @getchar()
  %71 = load i32, i32* %1, align 4
  ret i32 %71
}

declare dso_local i32 @__isoc99_scanf(i8*, ...) #1

declare dso_local i32 @printf(i8*, ...) #1

declare dso_local i32 @getchar() #1


!llvm.module.flags = !{!0}
!llvm.ident = !{!1}

!0 = !{i32 1, !"wchar_size", i32 4}
!1 = !{!"clang version 10.0.0-4ubuntu1 "}
